; Function Attrs: mustprogress uwtable
define void @_ZN5osgeo4proj3crs13ParametricCRS6createERKNS0_4util11PropertyMapERKN7dropbox6oxygen2nnISt10shared_ptrINS0_5datum15ParametricDatumEEEERKNS9_ISA_INS0_2cs12ParametricCSEEEE(ptr dead_on_unwind noalias writable sret(%"class.dropbox::oxygen::nn.121") align 8 %0, ptr noundef nonnull align 8 dereferenceable(8) %1, ptr noundef nonnull align 8 dereferenceable(16) %2, ptr noundef nonnull align 8 dereferenceable(16) %3) local_unnamed_addr #6 align 2 personality ptr @__gxx_personality_v0 {
  %5 = alloca %"struct.osgeo::proj::util::BaseObjectNNPtr", align 8
  tail call void @_ZN5osgeo4proj3crs13ParametricCRS14nn_make_sharedIS2_JRKN7dropbox6oxygen2nnISt10shared_ptrINS0_5datum15ParametricDatumEEEERKNS6_IS7_INS0_2cs12ParametricCSEEEEEEENS6_IS7_IT_EEEDpOT0_(ptr dead_on_unwind writable sret(%"class.dropbox::oxygen::nn.121") align 8 %0, ptr noundef nonnull align 8 dereferenceable(16) %2, ptr noundef nonnull align 8 dereferenceable(16) %3)
  %6 = load ptr, ptr %0, align 8
  %7 = load ptr, ptr %6, align 8
  %8 = getelementptr i8, ptr %7, i64 -24
  %9 = load i64, ptr %8, align 8
  %10 = getelementptr inbounds i8, ptr %6, i64 %9
  store ptr %10, ptr %5, align 8
  %11 = getelementptr inbounds i8, ptr %5, i64 8
  %12 = getelementptr inbounds i8, ptr %0, i64 8
  %13 = load ptr, ptr %12, align 8
  store ptr %13, ptr %11, align 8
  %.not.i.i.i.i.i = icmp eq ptr %13, null
  br i1 %.not.i.i.i.i.i, label %_ZN5osgeo4proj4util15BaseObjectNNPtrC2INS0_3crs13ParametricCRSEEERKN7dropbox6oxygen2nnISt10shared_ptrIT_EEE.exit, label %14

14:                                               ; preds = %4
  %15 = getelementptr inbounds i8, ptr %13, i64 8
  %16 = load i8, ptr @__libc_single_threaded, align 1
  %.not.i.i.i.i.i.i = icmp eq i8 %16, 0
  br i1 %.not.i.i.i.i.i.i, label %20, label %17

17:                                               ; preds = %14
  %18 = load i32, ptr %15, align 4
  %19 = add nsw i32 %18, 1
  store i32 %19, ptr %15, align 4
  br label %_ZN5osgeo4proj4util15BaseObjectNNPtrC2INS0_3crs13ParametricCRSEEERKN7dropbox6oxygen2nnISt10shared_ptrIT_EEE.exit

20:                                               ; preds = %14
  %21 = atomicrmw volatile add ptr %15, i32 1 acq_rel, align 4
  br label %_ZN5osgeo4proj4util15BaseObjectNNPtrC2INS0_3crs13ParametricCRSEEERKN7dropbox6oxygen2nnISt10shared_ptrIT_EEE.exit

_ZN5osgeo4proj4util15BaseObjectNNPtrC2INS0_3crs13ParametricCRSEEERKN7dropbox6oxygen2nnISt10shared_ptrIT_EEE.exit: ; preds = %20, %17, %4
  invoke void @_ZN5osgeo4proj4util10BaseObject10assignSelfERKNS1_15BaseObjectNNPtrE(ptr noundef nonnull align 8 dereferenceable(16) %10, ptr noundef nonnull align 8 dereferenceable(16) %5)
          to label %22 unwind label %30

22:                                               ; preds = %_ZN5osgeo4proj4util15BaseObjectNNPtrC2INS0_3crs13ParametricCRSEEERKN7dropbox6oxygen2nnISt10shared_ptrIT_EEE.exit
  call void @_ZN5osgeo4proj4util15BaseObjectNNPtrD1Ev(ptr noundef nonnull align 8 dereferenceable(16) %5) #37
  %23 = load ptr, ptr %0, align 8
  %24 = load ptr, ptr %23, align 8
  %25 = getelementptr i8, ptr %24, i64 -24
  %26 = load i64, ptr %25, align 8
  %27 = getelementptr inbounds i8, ptr %23, i64 %26
  invoke void @_ZN5osgeo4proj3crs3CRS13setPropertiesERKNS0_4util11PropertyMapE(ptr noundef nonnull align 8 dereferenceable(64) %27, ptr noundef nonnull align 8 dereferenceable(8) %1)
          to label %32 unwind label %28

28:                                               ; preds = %22
  %29 = landingpad { ptr, i32 }
          cleanup
  br label %33

30:                                               ; preds = %_ZN5osgeo4proj4util15BaseObjectNNPtrC2INS0_3crs13ParametricCRSEEERKN7dropbox6oxygen2nnISt10shared_ptrIT_EEE.exit
  %31 = landingpad { ptr, i32 }
          cleanup
  call void @_ZN5osgeo4proj4util15BaseObjectNNPtrD1Ev(ptr noundef nonnull align 8 dereferenceable(16) %5) #37
  br label %33

32:                                               ; preds = %22
  ret void

33:                                               ; preds = %30, %28
  %.pn = phi { ptr, i32 } [ %29, %28 ], [ %31, %30 ]
  call void @_ZN7dropbox6oxygen2nnISt10shared_ptrIN5osgeo4proj3crs13ParametricCRSEEED2Ev(ptr noundef nonnull align 8 dereferenceable(16) %0) #37
  resume { ptr, i32 } %.pn
}